; Function Attrs: nounwind uwtable
define i64 @l___private_Lean_Compiler_ExternAttr_0__Lean_hashExternAttrData____x40_Lean_Compiler_ExternAttr___hyg_456_(ptr noundef readonly captures(none) %0) local_unnamed_addr #0 {
  %2 = getelementptr inbounds nuw i8, ptr %0, i64 8
  %3 = load ptr, ptr %2, align 8, !tbaa !4
  %4 = getelementptr inbounds nuw i8, ptr %0, i64 16
  %5 = load ptr, ptr %4, align 8, !tbaa !4
  br label %6

6:                                                ; preds = %16, %1
  %.08.i = phi ptr [ %5, %1 ], [ %20, %16 ]
  %.0.i = phi i64 [ 7, %1 ], [ %22, %16 ]
  %7 = ptrtoint ptr %.08.i to i64
  %8 = and i64 %7, 1
  %.not.i.i = icmp eq i64 %8, 0
  br i1 %.not.i.i, label %12, label %9

9:                                                ; preds = %6
  %10 = lshr i64 %7, 1
  %11 = trunc i64 %10 to i32
  br label %lean_obj_tag.exit.i

12:                                               ; preds = %6
  %13 = getelementptr i8, ptr %.08.i, i64 4
  %.val.i.i = load i32, ptr %13, align 4
  %14 = lshr i32 %.val.i.i, 24
  br label %lean_obj_tag.exit.i

lean_obj_tag.exit.i:                              ; preds = %12, %9
  %.0.i.i = phi i32 [ %11, %9 ], [ %14, %12 ]
  %15 = icmp eq i32 %.0.i.i, 0
  br i1 %15, label %l_List_foldl___at___private_Lean_Compiler_ExternAttr_0__Lean_hashExternAttrData____x40_Lean_Compiler_ExternAttr___hyg_456____spec__1.exit, label %16

16:                                               ; preds = %lean_obj_tag.exit.i
  %17 = getelementptr inbounds nuw i8, ptr %.08.i, i64 8
  %18 = load ptr, ptr %17, align 8, !tbaa !4
  %19 = getelementptr inbounds nuw i8, ptr %.08.i, i64 16
  %20 = load ptr, ptr %19, align 8, !tbaa !4
  %21 = tail call i64 @l___private_Lean_Compiler_ExternAttr_0__Lean_hashExternEntry____x40_Lean_Compiler_ExternAttr___hyg_250_(ptr noundef %18)
  %22 = tail call i64 @lean_uint64_mix_hash(i64 noundef %.0.i, i64 noundef %21) #6
  br label %6

l_List_foldl___at___private_Lean_Compiler_ExternAttr_0__Lean_hashExternAttrData____x40_Lean_Compiler_ExternAttr___hyg_456____spec__1.exit: ; preds = %lean_obj_tag.exit.i
  %23 = ptrtoint ptr %3 to i64
  %24 = and i64 %23, 1
  %.not.i = icmp eq i64 %24, 0
  br i1 %.not.i, label %28, label %25

25:                                               ; preds = %l_List_foldl___at___private_Lean_Compiler_ExternAttr_0__Lean_hashExternAttrData____x40_Lean_Compiler_ExternAttr___hyg_456____spec__1.exit
  %26 = lshr i64 %23, 1
  %27 = trunc i64 %26 to i32
  br label %lean_obj_tag.exit

28:                                               ; preds = %l_List_foldl___at___private_Lean_Compiler_ExternAttr_0__Lean_hashExternAttrData____x40_Lean_Compiler_ExternAttr___hyg_456____spec__1.exit
  %29 = getelementptr i8, ptr %3, i64 4
  %.val.i = load i32, ptr %29, align 4
  %30 = lshr i32 %.val.i, 24
  br label %lean_obj_tag.exit

lean_obj_tag.exit:                                ; preds = %25, %28
  %.0.i17 = phi i32 [ %27, %25 ], [ %30, %28 ]
  %31 = icmp eq i32 %.0.i17, 0
  br i1 %31, label %32, label %34

32:                                               ; preds = %lean_obj_tag.exit
  %33 = load i64, ptr @l___private_Lean_Compiler_ExternAttr_0__Lean_hashExternAttrData____x40_Lean_Compiler_ExternAttr___hyg_456____closed__1, align 8, !tbaa !8
  br label %46

34:                                               ; preds = %lean_obj_tag.exit
  %35 = getelementptr inbounds nuw i8, ptr %3, i64 8
  %36 = load ptr, ptr %35, align 8, !tbaa !4
  %37 = ptrtoint ptr %36 to i64
  %38 = and i64 %37, 1
  %.not.i18 = icmp eq i64 %38, 0
  br i1 %.not.i18, label %41, label %39

39:                                               ; preds = %34
  %40 = lshr i64 %37, 1
  br label %lean_uint64_of_nat.exit

41:                                               ; preds = %34
  %42 = tail call i64 @lean_uint64_of_big_nat(ptr noundef %36) #6
  br label %lean_uint64_of_nat.exit

lean_uint64_of_nat.exit:                          ; preds = %39, %41
  %43 = phi i64 [ %40, %39 ], [ %42, %41 ]
  %44 = tail call i64 @lean_uint64_mix_hash(i64 noundef %43, i64 noundef 13) #6
  %45 = tail call i64 @lean_uint64_mix_hash(i64 noundef 0, i64 noundef %44) #6
  br label %46

46:                                               ; preds = %lean_uint64_of_nat.exit, %32
  %.sink = phi i64 [ %45, %lean_uint64_of_nat.exit ], [ %33, %32 ]
  %47 = tail call i64 @lean_uint64_mix_hash(i64 noundef %.sink, i64 noundef %.0.i) #6
  ret i64 %47
}